target datalayout = "e-m:e-p270:32:32-p271:32:32-p272:64:64-i64:64-i128:128-f80:128-n8:16:32:64-S128"
target triple = "x86_64-pc-linux-gnu"

%"class.cv::Size_" = type { i32, i32 }

; Function Attrs: mustprogress nounwind uwtable
define internal void @_ZN2cvL10transpose_ItEEvPKhmPhmNS_5Size_IiEE(ptr noundef %0, i64 noundef %1, ptr noundef %2, i64 noundef %3, i64 %4) #4 {
  %6 = alloca %"class.cv::Size_", align 4
  %7 = alloca ptr, align 8
  %8 = alloca i64, align 8
  %9 = alloca ptr, align 8
  %10 = alloca i64, align 8
  %11 = alloca i32, align 4
  %12 = alloca i32, align 4
  %13 = alloca i32, align 4
  %14 = alloca i32, align 4
  %15 = alloca ptr, align 8
  %16 = alloca ptr, align 8
  store i64 %4, ptr %6, align 4
  store ptr %0, ptr %7, align 8, !tbaa !28
  store i64 %1, ptr %8, align 8, !tbaa !42
  store ptr %2, ptr %9, align 8, !tbaa !28
  store i64 %3, ptr %10, align 8, !tbaa !42
  call void @llvm.lifetime.start.p0(i64 4, ptr %11) #15
  store i32 0, ptr %11, align 4, !tbaa !10
  call void @llvm.lifetime.start.p0(i64 4, ptr %12) #15
  call void @llvm.lifetime.start.p0(i64 4, ptr %13) #15
  %17 = getelementptr inbounds nuw %"class.cv::Size_", ptr %6, i32 0, i32 0
  %18 = load i32, ptr %17, align 4, !tbaa !37
  store i32 %18, ptr %13, align 4, !tbaa !10
  call void @llvm.lifetime.start.p0(i64 4, ptr %14) #15
  %19 = getelementptr inbounds nuw %"class.cv::Size_", ptr %6, i32 0, i32 1
  %20 = load i32, ptr %19, align 4, !tbaa !38
  store i32 %20, ptr %14, align 4, !tbaa !10
  br label %21

21:                                               ; preds = %58, %5
  %22 = load i32, ptr %11, align 4, !tbaa !10
  %23 = load i32, ptr %13, align 4, !tbaa !10
  %24 = icmp slt i32 %22, %23
  br i1 %24, label %25, label %61

25:                                               ; preds = %21
  call void @llvm.lifetime.start.p0(i64 8, ptr %15) #15
  %26 = load ptr, ptr %9, align 8, !tbaa !28
  %27 = load i64, ptr %10, align 8, !tbaa !42
  %28 = load i32, ptr %11, align 4, !tbaa !10
  %29 = sext i32 %28 to i64
  %30 = mul i64 %27, %29
  %31 = getelementptr inbounds nuw i8, ptr %26, i64 %30
  store ptr %31, ptr %15, align 8, !tbaa !98
  store i32 0, ptr %12, align 4, !tbaa !10
  br label %32

32:                                               ; preds = %54, %25
  %33 = load i32, ptr %12, align 4, !tbaa !10
  %34 = load i32, ptr %14, align 4, !tbaa !10
  %35 = icmp slt i32 %33, %34
  br i1 %35, label %36, label %57

36:                                               ; preds = %32
  call void @llvm.lifetime.start.p0(i64 8, ptr %16) #15
  %37 = load ptr, ptr %7, align 8, !tbaa !28
  %38 = load i32, ptr %11, align 4, !tbaa !10
  %39 = sext i32 %38 to i64
  %40 = mul i64 %39, 2
  %41 = getelementptr inbounds nuw i8, ptr %37, i64 %40
  %42 = load i32, ptr %12, align 4, !tbaa !10
  %43 = sext i32 %42 to i64
  %44 = load i64, ptr %8, align 8, !tbaa !42
  %45 = mul i64 %43, %44
  %46 = getelementptr inbounds nuw i8, ptr %41, i64 %45
  store ptr %46, ptr %16, align 8, !tbaa !98
  %47 = load ptr, ptr %16, align 8, !tbaa !98
  %48 = getelementptr inbounds i16, ptr %47, i64 0
  %49 = load i16, ptr %48, align 2, !tbaa !100
  %50 = load ptr, ptr %15, align 8, !tbaa !98
  %51 = load i32, ptr %12, align 4, !tbaa !10
  %52 = sext i32 %51 to i64
  %53 = getelementptr inbounds i16, ptr %50, i64 %52
  store i16 %49, ptr %53, align 2, !tbaa !100
  call void @llvm.lifetime.end.p0(i64 8, ptr %16) #15
  br label %54

54:                                               ; preds = %36
  %55 = load i32, ptr %12, align 4, !tbaa !10
  %56 = add nsw i32 %55, 1
  store i32 %56, ptr %12, align 4, !tbaa !10
  br label %32, !llvm.loop !214

57:                                               ; preds = %32
  call void @llvm.lifetime.end.p0(i64 8, ptr %15) #15
  br label %58

58:                                               ; preds = %57
  %59 = load i32, ptr %11, align 4, !tbaa !10
  %60 = add nsw i32 %59, 1
  store i32 %60, ptr %11, align 4, !tbaa !10
  br label %21, !llvm.loop !215

61:                                               ; preds = %21
  call void @llvm.lifetime.end.p0(i64 4, ptr %14) #15
  call void @llvm.lifetime.end.p0(i64 4, ptr %13) #15
  call void @llvm.lifetime.end.p0(i64 4, ptr %12) #15
  call void @llvm.lifetime.end.p0(i64 4, ptr %11) #15
  ret void
}

; Function Attrs: mustprogress uwtable
define internal void @_ZN2cvL13transpose_16uEPKhmPhmNS_5Size_IiEE(ptr noundef %0, i64 noundef %1, ptr noundef %2, i64 noundef %3, i64 %4) #0 {
  %6 = alloca %"class.cv::Size_", align 4
  %7 = alloca ptr, align 8
  %8 = alloca i64, align 8
  %9 = alloca ptr, align 8
  %10 = alloca i64, align 8
  %11 = alloca %"class.cv::Size_", align 4
  store i64 %4, ptr %6, align 4
  store ptr %0, ptr %7, align 8, !tbaa !28
  store i64 %1, ptr %8, align 8, !tbaa !42
  store ptr %2, ptr %9, align 8, !tbaa !28
  store i64 %3, ptr %10, align 8, !tbaa !42
  %12 = load ptr, ptr %7, align 8, !tbaa !28
  %13 = load i64, ptr %8, align 8, !tbaa !42
  %14 = load ptr, ptr %9, align 8, !tbaa !28
  %15 = load i64, ptr %10, align 8, !tbaa !42
  call void @llvm.memcpy.p0.p0.i64(ptr align 4 %11, ptr align 4 %6, i64 8, i1 false), !tbaa.struct !76
  %16 = load i64, ptr %11, align 4
  call void @_ZN2cvL10transpose_ItEEvPKhmPhmNS_5Size_IiEE(ptr noundef %12, i64 noundef %13, ptr noundef %14, i64 noundef %15, i64 %16)
  ret void
}